; Function Attrs: mustprogress uwtable
define internal void @"_ZNSt17_Function_handlerIFvR16cmLocalGeneratorRK19cmListFileBacktraceEZN12_GLOBAL__N_115cmLoadedCommand11InitialPassERKSt6vectorINSt7__cxx1112basic_stringIcSt11char_traitsIcESaIcEEESaISE_EER17cmExecutionStatusE3$_0E9_M_invokeERKSt9_Any_dataS1_S4_"(ptr nocapture noundef nonnull readonly align 8 dereferenceable(16) %0, ptr nocapture noundef nonnull readonly align 8 dereferenceable(824) %1, ptr nocapture nonnull readnone align 8 %2) #6 align 2 personality ptr @__gxx_personality_v0 {
  %.val = load ptr, ptr %0, align 8
  %.val3 = load ptr, ptr %.val, align 8
  %4 = getelementptr inbounds i8, ptr %1, i64 112
  %.val4 = load ptr, ptr %4, align 8
  %5 = getelementptr inbounds i8, ptr %.val3, i64 72
  %6 = load ptr, ptr %5, align 8
  %.not.i.i.i.i.i = icmp eq ptr %6, null
  %7 = select i1 %.not.i.i.i.i.i, ptr @.str.40, ptr %6
  store ptr %7, ptr @_ZN12_GLOBAL__N_18LastNameE, align 8
  %8 = tail call ptr @signal(i32 noundef 11, ptr noundef nonnull @TrapsForSignals) #30
  %9 = tail call ptr @signal(i32 noundef 7, ptr noundef nonnull @TrapsForSignals) #30
  %10 = tail call ptr @signal(i32 noundef 4, ptr noundef nonnull @TrapsForSignals) #30
  %11 = getelementptr inbounds i8, ptr %.val3, i64 40
  %12 = load ptr, ptr %11, align 8
  invoke void %12(ptr noundef nonnull %.val3, ptr noundef %.val4)
          to label %"_ZSt10__invoke_rIvRZN12_GLOBAL__N_115cmLoadedCommand11InitialPassERKSt6vectorINSt7__cxx1112basic_stringIcSt11char_traitsIcESaIcEEESaIS8_EER17cmExecutionStatusE3$_0JR16cmLocalGeneratorRK19cmListFileBacktraceEENSt9enable_ifIX16is_invocable_r_vIT_T0_DpT1_EESN_E4typeEOSO_DpOSP_.exit" unwind label %13

13:                                               ; preds = %3
  %14 = landingpad { ptr, i32 }
          cleanup
  tail call fastcc void @_ZN12_GLOBAL__N_118SignalHandlerGuardD2Ev() #30
  resume { ptr, i32 } %14

"_ZSt10__invoke_rIvRZN12_GLOBAL__N_115cmLoadedCommand11InitialPassERKSt6vectorINSt7__cxx1112basic_stringIcSt11char_traitsIcESaIcEEESaIS8_EER17cmExecutionStatusE3$_0JR16cmLocalGeneratorRK19cmListFileBacktraceEENSt9enable_ifIX16is_invocable_r_vIT_T0_DpT1_EESN_E4typeEOSO_DpOSP_.exit": ; preds = %3
  %15 = tail call ptr @signal(i32 noundef 11, ptr noundef null) #30
  %16 = tail call ptr @signal(i32 noundef 7, ptr noundef null) #30
  %17 = tail call ptr @signal(i32 noundef 4, ptr noundef null) #30
  ret void
}